target datalayout = "e-m:e-p270:32:32-p271:32:32-p272:64:64-i64:64-i128:128-f80:128-n8:16:32:64-S128"
target triple = "x86_64-pc-linux-gnu"

%class.markWord = type { i64 }
%class.BasicLock = type { %class.markWord }
%class.oopDesc = type { %class.markWord, %"union.oopDesc::_metadata" }
%"union.oopDesc::_metadata" = type { ptr }
%"struct.Atomic::LoadImpl" = type { i8 }
%"struct.Atomic::PlatformLoad" = type { i8 }

@.str = private unnamed_addr constant [8 x i8] c"monitor\00", align 1

; Function Attrs: mustprogress nounwind uwtable
define linkonce_odr hidden i64 @_ZN20PrimitiveConversions9TranslateI8markWordvE7recoverEm(i64 noundef %0) #1 comdat align 2 {
  %2 = alloca %class.markWord, align 8
  %3 = alloca i64, align 8
  store i64 %0, ptr %3, align 8
  %4 = load i64, ptr %3, align 8
  call void @_ZN8markWordC2Em(ptr noundef nonnull align 8 dereferenceable(8) %2, i64 noundef %4)
  %5 = getelementptr inbounds %class.markWord, ptr %2, i32 0, i32 0
  %6 = load i64, ptr %5, align 8
  ret i64 %6
}

; Function Attrs: mustprogress nounwind uwtable
define linkonce_odr hidden noundef i64 @_ZNK6Atomic12PlatformLoadILm8EEclImEET_PVKS3_(ptr noundef nonnull align 1 dereferenceable(1) %0, ptr noundef %1) #1 comdat align 2 {
  %3 = alloca ptr, align 8
  %4 = alloca ptr, align 8
  store ptr %0, ptr %3, align 8
  store ptr %1, ptr %4, align 8
  %5 = load ptr, ptr %4, align 8
  %6 = load volatile i64, ptr %5, align 8
  ret i64 %6
}

; Function Attrs: mustprogress nounwind uwtable
define linkonce_odr hidden i64 @_ZNK6Atomic8LoadImplI8markWordNS_12PlatformLoadILm8EEEvEclEPVKS1_(ptr noundef nonnull align 1 dereferenceable(1) %0, ptr noundef %1) #1 comdat align 2 {
  %3 = alloca %class.markWord, align 8
  %4 = alloca ptr, align 8
  %5 = alloca ptr, align 8
  %6 = alloca i64, align 8
  %7 = alloca %"struct.Atomic::PlatformLoad", align 1
  store ptr %0, ptr %4, align 8
  store ptr %1, ptr %5, align 8
  %8 = load ptr, ptr %5, align 8
  %9 = call noundef i64 @_ZNK6Atomic12PlatformLoadILm8EEclImEET_PVKS3_(ptr noundef nonnull align 1 dereferenceable(1) %7, ptr noundef %8)
  store i64 %9, ptr %6, align 8
  %10 = load i64, ptr %6, align 8
  %11 = call i64 @_ZN20PrimitiveConversions9TranslateI8markWordvE7recoverEm(i64 noundef %10)
  %12 = getelementptr inbounds %class.markWord, ptr %3, i32 0, i32 0
  store i64 %11, ptr %12, align 8
  %13 = getelementptr inbounds %class.markWord, ptr %3, i32 0, i32 0
  %14 = load i64, ptr %13, align 8
  ret i64 %14
}

; Function Attrs: mustprogress nounwind uwtable
define linkonce_odr hidden void @_ZN8markWordC2Em(ptr noundef nonnull align 8 dereferenceable(8) %0, i64 noundef %1) unnamed_addr #1 comdat align 2 {
  %3 = alloca ptr, align 8
  %4 = alloca i64, align 8
  store ptr %0, ptr %3, align 8
  store i64 %1, ptr %4, align 8
  %5 = load ptr, ptr %3, align 8
  %6 = getelementptr inbounds %class.markWord, ptr %5, i32 0, i32 0
  %7 = load i64, ptr %4, align 8
  store i64 %7, ptr %6, align 8
  ret void
}

; Function Attrs: mustprogress nounwind uwtable
define linkonce_odr hidden i64 @_ZN6Atomic4loadI8markWordEET_PVKS2_(ptr noundef %0) #1 comdat align 2 {
  %2 = alloca %class.markWord, align 8
  %3 = alloca ptr, align 8
  %4 = alloca %"struct.Atomic::LoadImpl", align 1
  store ptr %0, ptr %3, align 8
  %5 = load ptr, ptr %3, align 8
  %6 = call i64 @_ZNK6Atomic8LoadImplI8markWordNS_12PlatformLoadILm8EEEvEclEPVKS1_(ptr noundef nonnull align 1 dereferenceable(1) %4, ptr noundef %5)
  %7 = getelementptr inbounds %class.markWord, ptr %2, i32 0, i32 0
  store i64 %6, ptr %7, align 8
  %8 = getelementptr inbounds %class.markWord, ptr %2, i32 0, i32 0
  %9 = load i64, ptr %8, align 8
  ret i64 %9
}

; Function Attrs: mustprogress nounwind uwtable
define linkonce_odr hidden noundef zeroext i1 @_ZNK8markWordeqERKS_(ptr noundef nonnull align 8 dereferenceable(8) %0, ptr noundef nonnull align 8 dereferenceable(8) %1) #1 comdat align 2 {
  %3 = alloca ptr, align 8
  %4 = alloca ptr, align 8
  store ptr %0, ptr %3, align 8
  store ptr %1, ptr %4, align 8
  %5 = load ptr, ptr %3, align 8
  %6 = getelementptr inbounds %class.markWord, ptr %5, i32 0, i32 0
  %7 = load i64, ptr %6, align 8
  %8 = load ptr, ptr %4, align 8
  %9 = getelementptr inbounds %class.markWord, ptr %8, i32 0, i32 0
  %10 = load i64, ptr %9, align 8
  %11 = icmp eq i64 %7, %10
  ret i1 %11
}

; Function Attrs: mustprogress nounwind uwtable
define linkonce_odr hidden i64 @_ZN8markWord12from_pointerEPv(ptr noundef %0) #1 comdat align 2 {
  %2 = alloca %class.markWord, align 8
  %3 = alloca ptr, align 8
  store ptr %0, ptr %3, align 8
  %4 = load ptr, ptr %3, align 8
  %5 = ptrtoint ptr %4 to i64
  call void @_ZN8markWordC2Em(ptr noundef nonnull align 8 dereferenceable(8) %2, i64 noundef %5)
  %6 = getelementptr inbounds %class.markWord, ptr %2, i32 0, i32 0
  %7 = load i64, ptr %6, align 8
  ret i64 %7
}

; Function Attrs: mustprogress nounwind uwtable
define linkonce_odr hidden i64 @_ZNK7oopDesc4markEv(ptr noundef nonnull align 8 dereferenceable(16) %0) #1 comdat align 2 {
  %2 = alloca %class.markWord, align 8
  %3 = alloca ptr, align 8
  store ptr %0, ptr %3, align 8
  %4 = load ptr, ptr %3, align 8
  %5 = getelementptr inbounds %class.oopDesc, ptr %4, i32 0, i32 0
  %6 = call i64 @_ZN6Atomic4loadI8markWordEET_PVKS2_(ptr noundef %5)
  %7 = getelementptr inbounds %class.markWord, ptr %2, i32 0, i32 0
  store i64 %6, ptr %7, align 8
  %8 = getelementptr inbounds %class.markWord, ptr %2, i32 0, i32 0
  %9 = load i64, ptr %8, align 8
  ret i64 %9
}

; Function Attrs: mustprogress nounwind uwtable
define linkonce_odr hidden noundef i64 @_ZNK8markWord5valueEv(ptr noundef nonnull align 8 dereferenceable(8) %0) #1 comdat align 2 {
  %2 = alloca ptr, align 8
  store ptr %0, ptr %2, align 8
  %3 = load ptr, ptr %2, align 8
  %4 = getelementptr inbounds %class.markWord, ptr %3, i32 0, i32 0
  %5 = load i64, ptr %4, align 8
  ret i64 %5
}

; Function Attrs: mustprogress nounwind uwtable
define linkonce_odr hidden i64 @_ZNK9BasicLock16displaced_headerEv(ptr noundef nonnull align 8 dereferenceable(8) %0) #1 comdat align 2 {
  %2 = alloca %class.markWord, align 8
  %3 = alloca ptr, align 8
  store ptr %0, ptr %3, align 8
  %4 = load ptr, ptr %3, align 8
  %5 = getelementptr inbounds %class.BasicLock, ptr %4, i32 0, i32 0
  %6 = call i64 @_ZN6Atomic4loadI8markWordEET_PVKS2_(ptr noundef %5)
  %7 = getelementptr inbounds %class.markWord, ptr %2, i32 0, i32 0
  store i64 %6, ptr %7, align 8
  %8 = getelementptr inbounds %class.markWord, ptr %2, i32 0, i32 0
  %9 = load i64, ptr %8, align 8
  ret i64 %9
}

; Function Attrs: mustprogress nounwind uwtable
define hidden void @_ZNK9BasicLock8print_onEP12outputStreamP7oopDesc(ptr noundef nonnull align 8 dereferenceable(8) %0, ptr noundef %1, ptr noundef %2) #1 align 2 {
  %4 = alloca ptr, align 8
  %5 = alloca ptr, align 8
  %6 = alloca ptr, align 8
  %7 = alloca %class.markWord, align 8
  %8 = alloca i8, align 1
  %9 = alloca %class.markWord, align 8
  %10 = alloca %class.markWord, align 8
  store ptr %0, ptr %4, align 8
  store ptr %1, ptr %5, align 8
  store ptr %2, ptr %6, align 8
  %11 = load ptr, ptr %4, align 8
  %12 = load ptr, ptr %5, align 8
  call void (ptr, ptr, ...) @_ZN12outputStream5printEPKcz(ptr noundef nonnull align 8 dereferenceable(56) %12, ptr noundef @.str)
  %13 = call i64 @_ZNK9BasicLock16displaced_headerEv(ptr noundef nonnull align 8 dereferenceable(8) %11)
  %14 = getelementptr inbounds %class.markWord, ptr %7, i32 0, i32 0
  store i64 %13, ptr %14, align 8
  %15 = call noundef i64 @_ZNK8markWord5valueEv(ptr noundef nonnull align 8 dereferenceable(8) %7)
  %16 = icmp ne i64 %15, 0
  br i1 %16, label %17, label %33

17:                                               ; preds = %3
  %18 = load ptr, ptr %6, align 8
  %19 = icmp ne ptr %18, null
  br i1 %19, label %20, label %27

20:                                               ; preds = %17
  %21 = load ptr, ptr %6, align 8
  %22 = call i64 @_ZNK7oopDesc4markEv(ptr noundef nonnull align 8 dereferenceable(16) %21)
  %23 = getelementptr inbounds %class.markWord, ptr %9, i32 0, i32 0
  store i64 %22, ptr %23, align 8
  %24 = call i64 @_ZN8markWord12from_pointerEPv(ptr noundef %11)
  %25 = getelementptr inbounds %class.markWord, ptr %10, i32 0, i32 0
  store i64 %24, ptr %25, align 8
  %26 = call noundef zeroext i1 @_ZNK8markWordeqERKS_(ptr noundef nonnull align 8 dereferenceable(8) %9, ptr noundef nonnull align 8 dereferenceable(8) %10)
  br label %27

27:                                               ; preds = %20, %17
  %28 = phi i1 [ false, %17 ], [ %26, %20 ]
  %29 = zext i1 %28 to i8
  store i8 %29, ptr %8, align 1
  %30 = load ptr, ptr %5, align 8
  %31 = load i8, ptr %8, align 1
  %32 = trunc i8 %31 to i1
  call void @_ZNK8markWord8print_onEP12outputStreamb(ptr noundef nonnull align 8 dereferenceable(8) %7, ptr noundef %30, i1 noundef zeroext %32)
  br label %33

33:                                               ; preds = %27, %3
  ret void
}