; Function Attrs: mustprogress nounwind uwtable
define hidden void @_ZNK9BasicLock8print_onEP12outputStreamP7oopDesc(ptr noundef nonnull align 8 dereferenceable(8) %0, ptr noundef nonnull %1, ptr noundef %2) local_unnamed_addr #0 align 2 {
  %4 = alloca %class.markWord, align 8
  tail call void (ptr, ptr, ...) @_ZN12outputStream5printEPKcz(ptr noundef nonnull align 8 dereferenceable(56) %1, ptr noundef nonnull @.str) #3
  %5 = load volatile i64, ptr %0, align 8
  store i64 %5, ptr %4, align 8
  %.not = icmp eq i64 %5, 0
  br i1 %.not, label %13, label %6

6:                                                ; preds = %3
  %.not5 = icmp eq ptr %2, null
  br i1 %.not5, label %11, label %7

7:                                                ; preds = %6
  %8 = load volatile i64, ptr %2, align 8
  %9 = ptrtoint ptr %0 to i64
  %10 = icmp eq i64 %8, %9
  br label %11

11:                                               ; preds = %7, %6
  %12 = phi i1 [ false, %6 ], [ %10, %7 ]
  call void @_ZNK8markWord8print_onEP12outputStreamb(ptr noundef nonnull align 8 dereferenceable(8) %4, ptr noundef nonnull %1, i1 noundef zeroext %12) #3
  br label %13

13:                                               ; preds = %11, %3
  ret void
}